target datalayout = "e-m:e-p270:32:32-p271:32:32-p272:64:64-i64:64-i128:128-f80:128-n8:16:32:64-S128"
target triple = "x86_64-pc-linux-gnu"

%struct.H5CX_node_t = type { %struct.H5CX_t, ptr }
%struct.H5CX_t = type { i64, ptr, i64, ptr, i64, ptr, i64, ptr, i64, ptr, i64, ptr, i64, i32, i64, i8, ptr, i8, ptr, i8, i32, i8, [3 x double], i8, i64, i8, i32, i8, %struct.H5Z_cb_t, i8, ptr, i8, %struct.H5T_vlen_alloc_info_t, i8, %struct.H5T_conv_cb_t, i8, i32, i8, i8, i8, i32, i8, i8, i32, i8, i8, i32, i8, i32, i8, i64, i8, i8, i8, i8, i8, ptr, i8, ptr, i8, i32, i8, i32, i8, %struct.H5VL_connector_prop_t, i8, ptr, i8 }
%struct.H5Z_cb_t = type { ptr, ptr }
%struct.H5T_vlen_alloc_info_t = type { ptr, ptr, ptr, ptr }
%struct.H5T_conv_cb_t = type { ptr, ptr }
%struct.H5VL_connector_prop_t = type { ptr, ptr }

@H5_libinit_g = external global i8, align 1
@H5_libterm_g = external global i8, align 1
@.str = private unnamed_addr constant [97 x i8] c"generated/home/dtcxzyw/WorkSpace/Projects/compilers/llvm-opt-benchmark/bench/hdf5/hdf5/src/H5G.c\00", align 1
@H5E_FUNC_g = external global i64, align 8
@H5E_CANTINIT_g = external global i64, align 8
@.str.1 = private unnamed_addr constant [30 x i8] c"library initialization failed\00", align 1
@H5G_init_g = external global i8, align 1
@.str.2 = private unnamed_addr constant [32 x i8] c"interface initialization failed\00", align 1
@H5E_CANTSET_g = external global i64, align 8
@.str.3 = private unnamed_addr constant [22 x i8] c"can't set API context\00", align 1
@H5E_SYM_g = external global i64, align 8
@.str.7 = private unnamed_addr constant [9 x i8] c"app_file\00", align 1
@.str.8 = private unnamed_addr constant [9 x i8] c"app_func\00", align 1
@.str.9 = private unnamed_addr constant [9 x i8] c"app_line\00", align 1
@.str.10 = private unnamed_addr constant [7 x i8] c"loc_id\00", align 1
@.str.11 = private unnamed_addr constant [5 x i8] c"name\00", align 1
@.str.15 = private unnamed_addr constant [6 x i8] c"es_id\00", align 1
@H5E_CANTINSERT_g = external global i64, align 8
@.str.17 = private unnamed_addr constant [34 x i8] c"can't insert token into event set\00", align 1
@H5E_CANTGET_g = external global i64, align 8
@.str.33 = private unnamed_addr constant [11 x i8] c"group_info\00", align 1
@__func__.H5Gget_info_by_name_async = private unnamed_addr constant [26 x i8] c"H5Gget_info_by_name_async\00", align 1
@.str.35 = private unnamed_addr constant [41 x i8] c"can't asynchronously retrieve group info\00", align 1
@.str.36 = private unnamed_addr constant [15 x i8] c"*s*sIui*s*GIii\00", align 1
@.str.37 = private unnamed_addr constant [8 x i8] c"lapl_id\00", align 1

; Function Attrs: nounwind uwtable
define i32 @H5Gget_info_by_name_async(ptr noundef %0, ptr noundef %1, i32 noundef %2, i64 noundef %3, ptr noundef %4, ptr noundef %5, i64 noundef %6, i64 noundef %7) #0 {
  %9 = alloca ptr, align 8
  %10 = alloca ptr, align 8
  %11 = alloca i32, align 4
  %12 = alloca i64, align 8
  %13 = alloca ptr, align 8
  %14 = alloca ptr, align 8
  %15 = alloca i64, align 8
  %16 = alloca i64, align 8
  %17 = alloca ptr, align 8
  %18 = alloca ptr, align 8
  %19 = alloca ptr, align 8
  %20 = alloca i32, align 4
  %21 = alloca %struct.H5CX_node_t, align 8
  %22 = alloca i8, align 1
  %23 = alloca i8, align 1
  store ptr %0, ptr %9, align 8, !tbaa !7
  store ptr %1, ptr %10, align 8, !tbaa !7
  store i32 %2, ptr %11, align 4, !tbaa !20
  store i64 %3, ptr %12, align 8, !tbaa !3
  store ptr %4, ptr %13, align 8, !tbaa !7
  store ptr %5, ptr %14, align 8, !tbaa !27
  store i64 %6, ptr %15, align 8, !tbaa !3
  store i64 %7, ptr %16, align 8, !tbaa !3
  call void @llvm.lifetime.start.p0(i64 8, ptr %17) #5
  store ptr null, ptr %17, align 8, !tbaa !17
  call void @llvm.lifetime.start.p0(i64 8, ptr %18) #5
  store ptr null, ptr %18, align 8, !tbaa !14
  call void @llvm.lifetime.start.p0(i64 8, ptr %19) #5
  store ptr null, ptr %19, align 8, !tbaa !14
  call void @llvm.lifetime.start.p0(i64 4, ptr %20) #5
  store i32 0, ptr %20, align 4, !tbaa !20
  call void @llvm.lifetime.start.p0(i64 480, ptr %21) #5
  call void @llvm.memset.p0.i64(ptr align 8 %21, i8 0, i64 480, i1 false)
  call void @llvm.lifetime.start.p0(i64 1, ptr %22) #5
  store i8 0, ptr %22, align 1, !tbaa !10
  call void @llvm.lifetime.start.p0(i64 1, ptr %23) #5
  store i8 0, ptr %23, align 1, !tbaa !10
  br label %24

24:                                               ; preds = %8
  %25 = load i8, ptr @H5_libinit_g, align 1, !tbaa !10, !range !12, !noundef !13
  %26 = trunc i8 %25 to i1
  br i1 %26, label %31, label %27

27:                                               ; preds = %24
  %28 = load i8, ptr @H5_libterm_g, align 1, !tbaa !10, !range !12, !noundef !13
  %29 = trunc i8 %28 to i1
  %30 = xor i1 %29, true
  br label %31

31:                                               ; preds = %27, %24
  %32 = phi i1 [ false, %24 ], [ %30, %27 ]
  %33 = xor i1 %32, true
  %34 = xor i1 %33, true
  %35 = zext i1 %34 to i32
  %36 = sext i32 %35 to i64
  %37 = call i64 @llvm.expect.i64(i64 %36, i64 0)
  %38 = icmp ne i64 %37, 0
  br i1 %38, label %39, label %68

39:                                               ; preds = %31
  %40 = call i32 @H5_init_library()
  %41 = icmp slt i32 %40, 0
  %42 = xor i1 %41, true
  %43 = xor i1 %42, true
  %44 = zext i1 %43 to i32
  %45 = sext i32 %44 to i64
  %46 = call i64 @llvm.expect.i64(i64 %45, i64 0)
  %47 = icmp ne i64 %46, 0
  br i1 %47, label %48, label %67

48:                                               ; preds = %39
  br label %49

49:                                               ; preds = %48
  br label %50

50:                                               ; preds = %49
  br label %51

51:                                               ; preds = %50
  %52 = load i64, ptr @H5E_FUNC_g, align 8, !tbaa !3
  %53 = load i64, ptr @H5E_CANTINIT_g, align 8, !tbaa !3
  %54 = call i32 (ptr, ptr, i32, i64, i64, ptr, ...) @H5E_printf_stack(ptr noundef @.str, ptr noundef @__func__.H5Gget_info_by_name_async, i32 noundef 720, i64 noundef %52, i64 noundef %53, ptr noundef @.str.1)
  br label %55

55:                                               ; preds = %51
  br label %56

56:                                               ; preds = %55
  store i8 1, ptr %23, align 1, !tbaa !10
  %57 = load i8, ptr %23, align 1, !tbaa !10, !range !12, !noundef !13
  %58 = trunc i8 %57 to i1
  %59 = zext i1 %58 to i8
  store i8 %59, ptr %23, align 1, !tbaa !10
  br label %60

60:                                               ; preds = %56
  br label %61

61:                                               ; preds = %60
  br label %62

62:                                               ; preds = %61
  store i32 -1, ptr %20, align 4, !tbaa !20
  br label %211

63:                                               ; No predecessors!
  br label %64

64:                                               ; preds = %63
  br label %65

65:                                               ; preds = %64
  br label %66

66:                                               ; preds = %65
  br label %67

67:                                               ; preds = %66, %39
  br label %68

68:                                               ; preds = %67, %31
  %69 = load i8, ptr @H5G_init_g, align 1, !tbaa !10, !range !12, !noundef !13
  %70 = trunc i8 %69 to i1
  br i1 %70, label %75, label %71

71:                                               ; preds = %68
  %72 = load i8, ptr @H5_libterm_g, align 1, !tbaa !10, !range !12, !noundef !13
  %73 = trunc i8 %72 to i1
  %74 = xor i1 %73, true
  br label %75

75:                                               ; preds = %71, %68
  %76 = phi i1 [ false, %68 ], [ %74, %71 ]
  %77 = xor i1 %76, true
  %78 = xor i1 %77, true
  %79 = zext i1 %78 to i32
  %80 = sext i32 %79 to i64
  %81 = call i64 @llvm.expect.i64(i64 %80, i64 0)
  %82 = icmp ne i64 %81, 0
  br i1 %82, label %83, label %106

83:                                               ; preds = %75
  store i8 1, ptr @H5G_init_g, align 1, !tbaa !10
  %84 = call i32 @H5G__init_package()
  %85 = icmp slt i32 %84, 0
  br i1 %85, label %86, label %105

86:                                               ; preds = %83
  store i8 0, ptr @H5G_init_g, align 1, !tbaa !10
  br label %87

87:                                               ; preds = %86
  br label %88

88:                                               ; preds = %87
  br label %89

89:                                               ; preds = %88
  %90 = load i64, ptr @H5E_FUNC_g, align 8, !tbaa !3
  %91 = load i64, ptr @H5E_CANTINIT_g, align 8, !tbaa !3
  %92 = call i32 (ptr, ptr, i32, i64, i64, ptr, ...) @H5E_printf_stack(ptr noundef @.str, ptr noundef @__func__.H5Gget_info_by_name_async, i32 noundef 720, i64 noundef %90, i64 noundef %91, ptr noundef @.str.2)
  br label %93

93:                                               ; preds = %89
  br label %94

94:                                               ; preds = %93
  store i8 1, ptr %23, align 1, !tbaa !10
  %95 = load i8, ptr %23, align 1, !tbaa !10, !range !12, !noundef !13
  %96 = trunc i8 %95 to i1
  %97 = zext i1 %96 to i8
  store i8 %97, ptr %23, align 1, !tbaa !10
  br label %98

98:                                               ; preds = %94
  br label %99

99:                                               ; preds = %98
  br label %100

100:                                              ; preds = %99
  store i32 -1, ptr %20, align 4, !tbaa !20
  br label %211

101:                                              ; No predecessors!
  br label %102

102:                                              ; preds = %101
  br label %103

103:                                              ; preds = %102
  br label %104

104:                                              ; preds = %103
  br label %105

105:                                              ; preds = %104, %83
  br label %106

106:                                              ; preds = %105, %75
  br label %107

107:                                              ; preds = %106
  br label %108

108:                                              ; preds = %107
  br label %109

109:                                              ; preds = %108
  %110 = call i32 @H5CX_push(ptr noundef %21)
  %111 = icmp slt i32 %110, 0
  %112 = xor i1 %111, true
  %113 = xor i1 %112, true
  %114 = zext i1 %113 to i32
  %115 = sext i32 %114 to i64
  %116 = call i64 @llvm.expect.i64(i64 %115, i64 0)
  %117 = icmp ne i64 %116, 0
  br i1 %117, label %118, label %137

118:                                              ; preds = %109
  br label %119

119:                                              ; preds = %118
  br label %120

120:                                              ; preds = %119
  br label %121

121:                                              ; preds = %120
  %122 = load i64, ptr @H5E_FUNC_g, align 8, !tbaa !3
  %123 = load i64, ptr @H5E_CANTSET_g, align 8, !tbaa !3
  %124 = call i32 (ptr, ptr, i32, i64, i64, ptr, ...) @H5E_printf_stack(ptr noundef @.str, ptr noundef @__func__.H5Gget_info_by_name_async, i32 noundef 720, i64 noundef %122, i64 noundef %123, ptr noundef @.str.3)
  br label %125

125:                                              ; preds = %121
  br label %126

126:                                              ; preds = %125
  store i8 1, ptr %23, align 1, !tbaa !10
  %127 = load i8, ptr %23, align 1, !tbaa !10, !range !12, !noundef !13
  %128 = trunc i8 %127 to i1
  %129 = zext i1 %128 to i8
  store i8 %129, ptr %23, align 1, !tbaa !10
  br label %130

130:                                              ; preds = %126
  br label %131

131:                                              ; preds = %130
  br label %132

132:                                              ; preds = %131
  store i32 -1, ptr %20, align 4, !tbaa !20
  br label %211

133:                                              ; No predecessors!
  br label %134

134:                                              ; preds = %133
  br label %135

135:                                              ; preds = %134
  br label %136

136:                                              ; preds = %135
  br label %138

137:                                              ; preds = %109
  store i8 1, ptr %22, align 1, !tbaa !10
  br label %138

138:                                              ; preds = %137, %136
  br label %139

139:                                              ; preds = %138
  br label %140

140:                                              ; preds = %139
  %141 = call i32 @H5E_clear_stack()
  %142 = load i64, ptr %16, align 8, !tbaa !3
  %143 = icmp ne i64 0, %142
  br i1 %143, label %144, label %145

144:                                              ; preds = %140
  store ptr %18, ptr %19, align 8, !tbaa !14
  br label %145

145:                                              ; preds = %144, %140
  %146 = load i64, ptr %12, align 8, !tbaa !3
  %147 = load ptr, ptr %13, align 8, !tbaa !7
  %148 = load ptr, ptr %14, align 8, !tbaa !27
  %149 = load i64, ptr %15, align 8, !tbaa !3
  %150 = load ptr, ptr %19, align 8, !tbaa !14
  %151 = call i32 @H5G__get_info_by_name_api_common(i64 noundef %146, ptr noundef %147, ptr noundef %148, i64 noundef %149, ptr noundef %150, ptr noundef %17)
  %152 = icmp slt i32 %151, 0
  br i1 %152, label %153, label %172

153:                                              ; preds = %145
  br label %154

154:                                              ; preds = %153
  br label %155

155:                                              ; preds = %154
  br label %156

156:                                              ; preds = %155
  %157 = load i64, ptr @H5E_SYM_g, align 8, !tbaa !3
  %158 = load i64, ptr @H5E_CANTGET_g, align 8, !tbaa !3
  %159 = call i32 (ptr, ptr, i32, i64, i64, ptr, ...) @H5E_printf_stack(ptr noundef @.str, ptr noundef @__func__.H5Gget_info_by_name_async, i32 noundef 728, i64 noundef %157, i64 noundef %158, ptr noundef @.str.35)
  br label %160

160:                                              ; preds = %156
  br label %161

161:                                              ; preds = %160
  store i8 1, ptr %23, align 1, !tbaa !10
  %162 = load i8, ptr %23, align 1, !tbaa !10, !range !12, !noundef !13
  %163 = trunc i8 %162 to i1
  %164 = zext i1 %163 to i8
  store i8 %164, ptr %23, align 1, !tbaa !10
  br label %165

165:                                              ; preds = %161
  br label %166

166:                                              ; preds = %165
  br label %167

167:                                              ; preds = %166
  store i32 -1, ptr %20, align 4, !tbaa !20
  br label %211

168:                                              ; No predecessors!
  br label %169

169:                                              ; preds = %168
  br label %170

170:                                              ; preds = %169
  br label %171

171:                                              ; preds = %170
  br label %172

172:                                              ; preds = %171, %145
  %173 = load ptr, ptr %18, align 8, !tbaa !14
  %174 = icmp ne ptr null, %173
  br i1 %174, label %175, label %210

175:                                              ; preds = %172
  %176 = load i64, ptr %16, align 8, !tbaa !3
  %177 = load ptr, ptr %17, align 8, !tbaa !17
  %178 = call ptr @H5VL_obj_get_connector(ptr noundef %177)
  %179 = load ptr, ptr %18, align 8, !tbaa !14
  %180 = load ptr, ptr %9, align 8, !tbaa !7
  %181 = load ptr, ptr %10, align 8, !tbaa !7
  %182 = load i32, ptr %11, align 4, !tbaa !20
  %183 = load i64, ptr %12, align 8, !tbaa !3
  %184 = load ptr, ptr %13, align 8, !tbaa !7
  %185 = load ptr, ptr %14, align 8, !tbaa !27
  %186 = load i64, ptr %15, align 8, !tbaa !3
  %187 = load i64, ptr %16, align 8, !tbaa !3
  %188 = call i32 (i64, ptr, ptr, ptr, ptr, ...) @H5ES_insert(i64 noundef %176, ptr noundef %178, ptr noundef %179, ptr noundef @__func__.H5Gget_info_by_name_async, ptr noundef @.str.36, ptr noundef @.str.7, ptr noundef %180, ptr noundef @.str.8, ptr noundef %181, ptr noundef @.str.9, i32 noundef %182, ptr noundef @.str.10, i64 noundef %183, ptr noundef @.str.11, ptr noundef %184, ptr noundef @.str.33, ptr noundef %185, ptr noundef @.str.37, i64 noundef %186, ptr noundef @.str.15, i64 noundef %187)
  %189 = icmp slt i32 %188, 0
  br i1 %189, label %190, label %209

190:                                              ; preds = %175
  br label %191

191:                                              ; preds = %190
  br label %192

192:                                              ; preds = %191
  br label %193

193:                                              ; preds = %192
  %194 = load i64, ptr @H5E_SYM_g, align 8, !tbaa !3
  %195 = load i64, ptr @H5E_CANTINSERT_g, align 8, !tbaa !3
  %196 = call i32 (ptr, ptr, i32, i64, i64, ptr, ...) @H5E_printf_stack(ptr noundef @.str, ptr noundef @__func__.H5Gget_info_by_name_async, i32 noundef 736, i64 noundef %194, i64 noundef %195, ptr noundef @.str.17)
  br label %197

197:                                              ; preds = %193
  br label %198

198:                                              ; preds = %197
  store i8 1, ptr %23, align 1, !tbaa !10
  %199 = load i8, ptr %23, align 1, !tbaa !10, !range !12, !noundef !13
  %200 = trunc i8 %199 to i1
  %201 = zext i1 %200 to i8
  store i8 %201, ptr %23, align 1, !tbaa !10
  br label %202

202:                                              ; preds = %198
  br label %203

203:                                              ; preds = %202
  br label %204

204:                                              ; preds = %203
  store i32 -1, ptr %20, align 4, !tbaa !20
  br label %211

205:                                              ; No predecessors!
  br label %206

206:                                              ; preds = %205
  br label %207

207:                                              ; preds = %206
  br label %208

208:                                              ; preds = %207
  br label %209

209:                                              ; preds = %208, %175
  br label %210

210:                                              ; preds = %209, %172
  br label %211

211:                                              ; preds = %210, %204, %167, %132, %100, %62
  %212 = load i8, ptr %22, align 1, !tbaa !10, !range !12, !noundef !13
  %213 = trunc i8 %212 to i1
  %214 = xor i1 %213, true
  %215 = xor i1 %214, true
  %216 = zext i1 %215 to i32
  %217 = sext i32 %216 to i64
  %218 = call i64 @llvm.expect.i64(i64 %217, i64 1)
  %219 = icmp ne i64 %218, 0
  br i1 %219, label %220, label %222

220:                                              ; preds = %211
  %221 = call i32 @H5CX_pop(i1 noundef zeroext true)
  store i8 0, ptr %22, align 1, !tbaa !10
  br label %222

222:                                              ; preds = %220, %211
  %223 = load i8, ptr %23, align 1, !tbaa !10, !range !12, !noundef !13
  %224 = trunc i8 %223 to i1
  %225 = xor i1 %224, true
  %226 = xor i1 %225, true
  %227 = zext i1 %226 to i32
  %228 = sext i32 %227 to i64
  %229 = call i64 @llvm.expect.i64(i64 %228, i64 0)
  %230 = icmp ne i64 %229, 0
  br i1 %230, label %231, label %233

231:                                              ; preds = %222
  %232 = call i32 @H5E_dump_api_stack()
  br label %233

233:                                              ; preds = %231, %222
  %234 = load i32, ptr %20, align 4, !tbaa !20
  call void @llvm.lifetime.end.p0(i64 1, ptr %23) #5
  call void @llvm.lifetime.end.p0(i64 1, ptr %22) #5
  call void @llvm.lifetime.end.p0(i64 480, ptr %21) #5
  call void @llvm.lifetime.end.p0(i64 4, ptr %20) #5
  call void @llvm.lifetime.end.p0(i64 8, ptr %19) #5
  call void @llvm.lifetime.end.p0(i64 8, ptr %18) #5
  call void @llvm.lifetime.end.p0(i64 8, ptr %17) #5
  ret i32 %234
}